target datalayout = "e-m:e-p270:32:32-p271:32:32-p272:64:64-i64:64-i128:128-f80:128-n8:16:32:64-S128"
target triple = "x86_64-pc-linux-gnu"

; Function Attrs: nounwind uwtable
define i64 @lv_pow(i64 noundef %0, i8 noundef signext %1) #0 {
  %3 = alloca i64, align 8
  %4 = alloca i8, align 1
  %5 = alloca i64, align 8
  store i64 %0, ptr %3, align 8, !tbaa !21
  store i8 %1, ptr %4, align 1, !tbaa !20
  call void @llvm.lifetime.start.p0(i64 8, ptr %5) #2
  store i64 1, ptr %5, align 8, !tbaa !21
  br label %6

6:                                                ; preds = %18, %2
  %7 = load i8, ptr %4, align 1, !tbaa !20
  %8 = icmp ne i8 %7, 0
  br i1 %8, label %9, label %26

9:                                                ; preds = %6
  %10 = load i8, ptr %4, align 1, !tbaa !20
  %11 = sext i8 %10 to i32
  %12 = and i32 %11, 1
  %13 = icmp ne i32 %12, 0
  br i1 %13, label %14, label %18

14:                                               ; preds = %9
  %15 = load i64, ptr %3, align 8, !tbaa !21
  %16 = load i64, ptr %5, align 8, !tbaa !21
  %17 = mul nsw i64 %16, %15
  store i64 %17, ptr %5, align 8, !tbaa !21
  br label %18

18:                                               ; preds = %14, %9
  %19 = load i8, ptr %4, align 1, !tbaa !20
  %20 = sext i8 %19 to i32
  %21 = ashr i32 %20, 1
  %22 = trunc i32 %21 to i8
  store i8 %22, ptr %4, align 1, !tbaa !20
  %23 = load i64, ptr %3, align 8, !tbaa !21
  %24 = load i64, ptr %3, align 8, !tbaa !21
  %25 = mul nsw i64 %24, %23
  store i64 %25, ptr %3, align 8, !tbaa !21
  br label %6, !llvm.loop !23

26:                                               ; preds = %6
  %27 = load i64, ptr %5, align 8, !tbaa !21
  call void @llvm.lifetime.end.p0(i64 8, ptr %5) #2
  ret i64 %27
}