; Function Attrs: nofree norecurse nosync nounwind memory(none) uwtable
define i64 @lv_pow(i64 noundef %0, i8 noundef signext %1) local_unnamed_addr #1 {
  %.not11 = icmp eq i8 %1, 0
  br i1 %.not11, label %._crit_edge, label %.lr.ph

.lr.ph:                                           ; preds = %2, %.lr.ph
  %.014 = phi i64 [ %spec.select, %.lr.ph ], [ 1, %2 ]
  %.0813 = phi i8 [ %5, %.lr.ph ], [ %1, %2 ]
  %.0912 = phi i64 [ %6, %.lr.ph ], [ %0, %2 ]
  %3 = and i8 %.0813, 1
  %.not10 = icmp eq i8 %3, 0
  %4 = select i1 %.not10, i64 1, i64 %.0912
  %spec.select = mul nsw i64 %4, %.014
  %5 = ashr i8 %.0813, 1
  %6 = mul nsw i64 %.0912, %.0912
  %.not = icmp ult i8 %.0813, 2
  br i1 %.not, label %._crit_edge, label %.lr.ph, !llvm.loop !15

._crit_edge:                                      ; preds = %.lr.ph, %2
  %.0.lcssa = phi i64 [ 1, %2 ], [ %spec.select, %.lr.ph ]
  ret i64 %.0.lcssa
}